target datalayout = "e-m:e-p270:32:32-p271:32:32-p272:64:64-i64:64-i128:128-f80:128-n8:16:32:64-S128"
target triple = "x86_64-pc-linux-gnu"

%struct._object = type { %union.anon, ptr }
%union.anon = type { i64 }
%struct._typeobject = type { %struct.PyVarObject, ptr, i64, i64, ptr, i64, ptr, ptr, ptr, ptr, ptr, ptr, ptr, ptr, ptr, ptr, ptr, ptr, ptr, i64, ptr, ptr, ptr, ptr, i64, ptr, ptr, ptr, ptr, ptr, ptr, ptr, ptr, ptr, i64, ptr, ptr, ptr, ptr, ptr, ptr, ptr, ptr, ptr, ptr, ptr, i32, ptr, ptr, i8, i16 }
%struct.PyVarObject = type { %struct._object, i64 }
%struct._randomstate = type { ptr, ptr }
%struct.PyModuleObject = type { %struct._object, ptr, ptr, ptr, ptr, ptr }
%struct.PyTupleObject = type { %struct.PyVarObject, [1 x ptr] }

@PyExc_TypeError = external global ptr, align 8
@.str.16 = private unnamed_addr constant [7 x i8] c"Random\00", align 1
@.str.17 = private unnamed_addr constant [34 x i8] c"Random() requires 0 or 1 argument\00", align 1

; Function Attrs: inlinehint nounwind uwtable
define internal i64 @Py_SIZE(ptr noundef %0) #3 {
  %2 = alloca ptr, align 8
  store ptr %0, ptr %2, align 8, !tbaa !3
  %3 = load ptr, ptr %2, align 8, !tbaa !3
  %4 = getelementptr inbounds nuw %struct.PyVarObject, ptr %3, i32 0, i32 1
  %5 = load i64, ptr %4, align 8, !tbaa !49
  ret i64 %5
}

; Function Attrs: inlinehint nounwind uwtable
define internal ptr @_PyModule_GetState(ptr noundef %0) #3 {
  %2 = alloca ptr, align 8
  store ptr %0, ptr %2, align 8, !tbaa !3
  %3 = load ptr, ptr %2, align 8, !tbaa !3
  %4 = getelementptr inbounds nuw %struct.PyModuleObject, ptr %3, i32 0, i32 3
  %5 = load ptr, ptr %4, align 8, !tbaa !17
  ret ptr %5
}

; Function Attrs: inlinehint nounwind uwtable
define internal i64 @PyTuple_GET_SIZE(ptr noundef %0) #3 {
  %2 = alloca ptr, align 8
  %3 = alloca ptr, align 8
  store ptr %0, ptr %2, align 8, !tbaa !3
  call void @llvm.lifetime.start.p0(i64 8, ptr %3) #7
  %4 = load ptr, ptr %2, align 8, !tbaa !3
  store ptr %4, ptr %3, align 8, !tbaa !8
  %5 = load ptr, ptr %3, align 8, !tbaa !8
  %6 = call i64 @Py_SIZE(ptr noundef %5)
  call void @llvm.lifetime.end.p0(i64 8, ptr %3) #7
  ret i64 %6
}

; Function Attrs: inlinehint nounwind uwtable
define internal i32 @Py_IS_TYPE(ptr noundef %0, ptr noundef %1) #3 {
  %3 = alloca ptr, align 8
  %4 = alloca ptr, align 8
  store ptr %0, ptr %3, align 8, !tbaa !3
  store ptr %1, ptr %4, align 8, !tbaa !39
  %5 = load ptr, ptr %3, align 8, !tbaa !3
  %6 = call ptr @_Py_TYPE(ptr noundef %5)
  %7 = load ptr, ptr %4, align 8, !tbaa !39
  %8 = icmp eq ptr %6, %7
  %9 = zext i1 %8 to i32
  ret i32 %9
}

; Function Attrs: inlinehint nounwind uwtable
define internal ptr @get_random_state(ptr noundef %0) #3 {
  %2 = alloca ptr, align 8
  %3 = alloca ptr, align 8
  store ptr %0, ptr %2, align 8, !tbaa !3
  call void @llvm.lifetime.start.p0(i64 8, ptr %3) #7
  %4 = load ptr, ptr %2, align 8, !tbaa !3
  %5 = call ptr @_PyModule_GetState(ptr noundef %4)
  store ptr %5, ptr %3, align 8, !tbaa !8
  %6 = load ptr, ptr %3, align 8, !tbaa !8
  call void @llvm.lifetime.end.p0(i64 8, ptr %3) #7
  ret ptr %6
}

; Function Attrs: inlinehint nounwind uwtable
define internal ptr @_Py_TYPE(ptr noundef %0) #3 {
  %2 = alloca ptr, align 8
  store ptr %0, ptr %2, align 8, !tbaa !3
  %3 = load ptr, ptr %2, align 8, !tbaa !3
  %4 = getelementptr inbounds nuw %struct._object, ptr %3, i32 0, i32 1
  %5 = load ptr, ptr %4, align 8, !tbaa !41
  ret ptr %5
}

; Function Attrs: nounwind uwtable
define internal i32 @random_init(ptr noundef %0, ptr noundef %1, ptr noundef %2) #0 {
  %4 = alloca i32, align 4
  %5 = alloca ptr, align 8
  %6 = alloca ptr, align 8
  %7 = alloca ptr, align 8
  %8 = alloca ptr, align 8
  %9 = alloca ptr, align 8
  %10 = alloca i32, align 4
  store ptr %0, ptr %5, align 8, !tbaa !8
  store ptr %1, ptr %6, align 8, !tbaa !3
  store ptr %2, ptr %7, align 8, !tbaa !3
  call void @llvm.lifetime.start.p0(i64 8, ptr %8) #7
  store ptr null, ptr %8, align 8, !tbaa !3
  call void @llvm.lifetime.start.p0(i64 8, ptr %9) #7
  %11 = load ptr, ptr %5, align 8, !tbaa !8
  %12 = call ptr @_Py_TYPE(ptr noundef %11)
  %13 = call ptr @PyType_GetModuleByDef(ptr noundef %12, ptr noundef @_randommodule)
  %14 = call ptr @get_random_state(ptr noundef %13)
  store ptr %14, ptr %9, align 8, !tbaa !8
  %15 = load ptr, ptr %5, align 8, !tbaa !8
  %16 = load ptr, ptr %9, align 8, !tbaa !8
  %17 = getelementptr inbounds nuw %struct._randomstate, ptr %16, i32 0, i32 0
  %18 = load ptr, ptr %17, align 8, !tbaa !9
  %19 = call i32 @Py_IS_TYPE(ptr noundef %15, ptr noundef %18)
  %20 = icmp ne i32 %19, 0
  br i1 %20, label %32, label %21

21:                                               ; preds = %3
  %22 = load ptr, ptr %5, align 8, !tbaa !8
  %23 = call ptr @_Py_TYPE(ptr noundef %22)
  %24 = getelementptr inbounds nuw %struct._typeobject, ptr %23, i32 0, i32 35
  %25 = load ptr, ptr %24, align 8, !tbaa !22
  %26 = load ptr, ptr %9, align 8, !tbaa !8
  %27 = getelementptr inbounds nuw %struct._randomstate, ptr %26, i32 0, i32 0
  %28 = load ptr, ptr %27, align 8, !tbaa !9
  %29 = getelementptr inbounds nuw %struct._typeobject, ptr %28, i32 0, i32 35
  %30 = load ptr, ptr %29, align 8, !tbaa !22
  %31 = icmp eq ptr %25, %30
  br i1 %31, label %32, label %40

32:                                               ; preds = %21, %3
  %33 = load ptr, ptr %7, align 8, !tbaa !3
  %34 = icmp eq ptr %33, null
  br i1 %34, label %40, label %35

35:                                               ; preds = %32
  %36 = load ptr, ptr %7, align 8, !tbaa !3
  %37 = call i32 @_PyArg_NoKeywords(ptr noundef @.str.16, ptr noundef %36)
  %38 = icmp ne i32 %37, 0
  br i1 %38, label %40, label %39

39:                                               ; preds = %35
  store i32 -1, ptr %4, align 4
  store i32 1, ptr %10, align 4
  br label %59

40:                                               ; preds = %35, %32, %21
  %41 = load ptr, ptr %6, align 8, !tbaa !3
  %42 = call i64 @PyTuple_GET_SIZE(ptr noundef %41)
  %43 = icmp sgt i64 %42, 1
  br i1 %43, label %44, label %46

44:                                               ; preds = %40
  %45 = load ptr, ptr @PyExc_TypeError, align 8, !tbaa !3
  call void @PyErr_SetString(ptr noundef %45, ptr noundef @.str.17)
  store i32 -1, ptr %4, align 4
  store i32 1, ptr %10, align 4
  br label %59

46:                                               ; preds = %40
  %47 = load ptr, ptr %6, align 8, !tbaa !3
  %48 = call i64 @PyTuple_GET_SIZE(ptr noundef %47)
  %49 = icmp eq i64 %48, 1
  br i1 %49, label %50, label %55

50:                                               ; preds = %46
  %51 = load ptr, ptr %6, align 8, !tbaa !3
  %52 = getelementptr inbounds nuw %struct.PyTupleObject, ptr %51, i32 0, i32 1
  %53 = getelementptr [1 x ptr], ptr %52, i64 0, i64 0
  %54 = load ptr, ptr %53, align 8, !tbaa !3
  store ptr %54, ptr %8, align 8, !tbaa !3
  br label %55

55:                                               ; preds = %50, %46
  %56 = load ptr, ptr %5, align 8, !tbaa !8
  %57 = load ptr, ptr %8, align 8, !tbaa !3
  %58 = call i32 @random_seed(ptr noundef %56, ptr noundef %57)
  store i32 %58, ptr %4, align 4
  store i32 1, ptr %10, align 4
  br label %59

59:                                               ; preds = %55, %44, %39
  call void @llvm.lifetime.end.p0(i64 8, ptr %9) #7
  call void @llvm.lifetime.end.p0(i64 8, ptr %8) #7
  %60 = load i32, ptr %4, align 4
  ret i32 %60
}