; Function Attrs: nounwind uwtable
define internal range(i32 -1, 1) i32 @random_init(ptr noundef captures(none) %0, ptr noundef readonly captures(none) %1, ptr noundef %2) #0 {
  %4 = getelementptr i8, ptr %0, i64 8
  %.val15 = load ptr, ptr %4, align 8, !tbaa !17
  %5 = tail call ptr @PyType_GetModuleByDef(ptr noundef %.val15, ptr noundef nonnull @_randommodule) #8
  %6 = getelementptr i8, ptr %5, i64 32
  %.val = load ptr, ptr %6, align 8, !tbaa !3
  %7 = load ptr, ptr %.val, align 8, !tbaa !12
  %.val17 = load ptr, ptr %4, align 8, !tbaa !17
  %.not = icmp eq ptr %.val17, %7
  br i1 %.not, label %15, label %8

8:                                                ; preds = %3
  %9 = getelementptr inbounds nuw i8, ptr %.val17, i64 296
  %10 = load ptr, ptr %9, align 8, !tbaa !18
  %11 = getelementptr inbounds nuw i8, ptr %7, i64 296
  %12 = load ptr, ptr %11, align 8, !tbaa !18
  %13 = icmp ne ptr %10, %12
  %14 = icmp eq ptr %2, null
  %or.cond = or i1 %14, %13
  br i1 %or.cond, label %18, label %16

15:                                               ; preds = %3
  %.old1 = icmp eq ptr %2, null
  br i1 %.old1, label %18, label %16

16:                                               ; preds = %8, %15
  %17 = tail call i32 @_PyArg_NoKeywords(ptr noundef nonnull @.str.16, ptr noundef nonnull %2) #8
  %.not14 = icmp eq i32 %17, 0
  br i1 %.not14, label %30, label %18

18:                                               ; preds = %16, %15, %8
  %19 = getelementptr i8, ptr %1, i64 16
  %.val18 = load i64, ptr %19, align 8, !tbaa !28
  %20 = icmp sgt i64 %.val18, 1
  br i1 %20, label %21, label %23

21:                                               ; preds = %18
  %22 = load ptr, ptr @PyExc_TypeError, align 8, !tbaa !14
  tail call void @PyErr_SetString(ptr noundef %22, ptr noundef nonnull @.str.17) #8
  br label %30

23:                                               ; preds = %18
  %24 = icmp eq i64 %.val18, 1
  br i1 %24, label %25, label %28

25:                                               ; preds = %23
  %26 = getelementptr inbounds nuw i8, ptr %1, i64 24
  %27 = load ptr, ptr %26, align 8, !tbaa !14
  br label %28

28:                                               ; preds = %25, %23
  %.013 = phi ptr [ %27, %25 ], [ null, %23 ]
  %29 = tail call fastcc i32 @random_seed(ptr noundef nonnull %0, ptr noundef %.013)
  br label %30

30:                                               ; preds = %16, %28, %21
  %.0 = phi i32 [ -1, %21 ], [ %29, %28 ], [ -1, %16 ]
  ret i32 %.0
}